target datalayout = "e-m:e-p270:32:32-p271:32:32-p272:64:64-i64:64-i128:128-f80:128-n8:16:32:64-S128"
target triple = "x86_64-unknown-linux-gnu"

%class.fpa2bv_model_converter = type { %class.model_converter.base, ptr, ptr }
%class.model_converter.base = type <{ %class.converter.base, [4 x i8], ptr, i8 }>
%class.converter.base = type <{ ptr, i32 }>

@.str = private unnamed_addr constant [24 x i8] c"(fpa2bv-model-converter\00", align 1
@.str.1 = private unnamed_addr constant [2 x i8] c")\00", align 1

; Function Attrs: mustprogress uwtable
define hidden void @_ZN22fpa2bv_model_converter7displayERSo(ptr noundef nonnull align 8 dereferenceable(48) %this, ptr noundef nonnull align 8 dereferenceable(8) %out) unnamed_addr #4 align 2 {
entry:
  %this.addr = alloca ptr, align 8
  %out.addr = alloca ptr, align 8
  store ptr %this, ptr %this.addr, align 8
  store ptr %out, ptr %out.addr, align 8
  %this1 = load ptr, ptr %this.addr, align 8
  %0 = load ptr, ptr %out.addr, align 8
  %call = call noundef nonnull align 8 dereferenceable(8) ptr @_ZStlsISt11char_traitsIcEERSt13basic_ostreamIcT_ES5_PKc(ptr noundef nonnull align 8 dereferenceable(8) %0, ptr noundef @.str)
  %m_bv2fp = getelementptr inbounds %class.fpa2bv_model_converter, ptr %this1, i32 0, i32 2
  %1 = load ptr, ptr %m_bv2fp, align 8
  %2 = load ptr, ptr %out.addr, align 8
  call void @_ZN16bv2fpa_converter7displayERSo(ptr noundef nonnull align 8 dereferenceable(216) %1, ptr noundef nonnull align 8 dereferenceable(8) %2)
  %3 = load ptr, ptr %out.addr, align 8
  %call2 = call noundef nonnull align 8 dereferenceable(8) ptr @_ZStlsISt11char_traitsIcEERSt13basic_ostreamIcT_ES5_PKc(ptr noundef nonnull align 8 dereferenceable(8) %3, ptr noundef @.str.1)
  ret void
}