; Function Attrs: mustprogress uwtable
define hidden void @_ZN22fpa2bv_model_converter7displayERSo(ptr nocapture noundef nonnull readonly align 8 dereferenceable(48) %this, ptr noundef nonnull align 8 dereferenceable(8) %out) unnamed_addr #3 align 2 {
entry:
  %call = tail call noundef nonnull align 8 dereferenceable(8) ptr @_ZStlsISt11char_traitsIcEERSt13basic_ostreamIcT_ES5_PKc(ptr noundef nonnull align 8 dereferenceable(8) %out, ptr noundef nonnull @.str)
  %m_bv2fp = getelementptr inbounds i8, ptr %this, i64 40
  %0 = load ptr, ptr %m_bv2fp, align 8
  tail call void @_ZN16bv2fpa_converter7displayERSo(ptr noundef nonnull align 8 dereferenceable(216) %0, ptr noundef nonnull align 8 dereferenceable(8) %out)
  %call2 = tail call noundef nonnull align 8 dereferenceable(8) ptr @_ZStlsISt11char_traitsIcEERSt13basic_ostreamIcT_ES5_PKc(ptr noundef nonnull align 8 dereferenceable(8) %out, ptr noundef nonnull @.str.1)
  ret void
}